; Function Attrs: nounwind uwtable
define noalias nonnull ptr @l_Std_Time_PlainTime_addMinutes(ptr noundef readonly captures(none) %0, ptr noundef %1) local_unnamed_addr #0 {
  %3 = tail call ptr @l_Std_Time_PlainTime_toNanoseconds(ptr noundef %0)
  %4 = load ptr, ptr @l_Std_Time_PlainTime_toNanoseconds___closed__2, align 8, !tbaa !4
  %5 = ptrtoint ptr %1 to i64
  %6 = and i64 %5, 1
  %.not.i16 = icmp eq i64 %6, 0
  br i1 %.not.i16, label %.critedge.i, label %7, !prof !8

7:                                                ; preds = %2
  %8 = ptrtoint ptr %4 to i64
  %9 = and i64 %8, 1
  %.not7.i = icmp eq i64 %9, 0
  br i1 %.not7.i, label %.critedge.i, label %10, !prof !8

10:                                               ; preds = %7
  %11 = shl i64 %5, 31
  %12 = ashr i64 %11, 32
  %13 = shl i64 %8, 31
  %14 = ashr i64 %13, 32
  %15 = mul nsw i64 %14, %12
  %16 = add nsw i64 %15, 2147483648
  %17 = icmp ult i64 %16, 4294967296
  br i1 %17, label %18, label %23, !prof !14

18:                                               ; preds = %10
  %19 = shl nsw i64 %15, 1
  %20 = and i64 %19, 8589934590
  %21 = or disjoint i64 %20, 1
  %22 = inttoptr i64 %21 to ptr
  br label %lean_int_mul.exit

23:                                               ; preds = %10
  %24 = tail call ptr @lean_big_int64_to_int(i64 noundef range(i64 -4611686016279904256, -9223372036854775808) %15) #4
  br label %lean_int_mul.exit

.critedge.i:                                      ; preds = %7, %2
  %25 = tail call ptr @lean_int_big_mul(ptr noundef %1, ptr noundef %4) #4
  br label %lean_int_mul.exit

lean_int_mul.exit:                                ; preds = %18, %23, %.critedge.i
  %.0.i = phi ptr [ %25, %.critedge.i ], [ %22, %18 ], [ %24, %23 ]
  %26 = ptrtoint ptr %3 to i64
  %27 = and i64 %26, 1
  %.not.i17 = icmp eq i64 %27, 0
  %.pre25 = ptrtoint ptr %.0.i to i64
  %.pre = and i64 %.pre25, 1
  %28 = icmp eq i64 %.pre, 0
  br i1 %.not.i17, label %lean_int_add.exit, label %29, !prof !8

29:                                               ; preds = %lean_int_mul.exit
  br i1 %28, label %lean_int_add.exit.thread29, label %31, !prof !8

lean_int_add.exit.thread29:                       ; preds = %29
  %30 = tail call ptr @lean_int_big_add(ptr noundef %3, ptr noundef %.0.i) #4
  br label %47

31:                                               ; preds = %29
  %32 = shl i64 %26, 31
  %33 = ashr i64 %32, 32
  %34 = shl i64 %.pre25, 31
  %35 = ashr i64 %34, 32
  %36 = add nsw i64 %35, %33
  %37 = add nsw i64 %36, 2147483648
  %38 = icmp ult i64 %37, 4294967296
  br i1 %38, label %39, label %44, !prof !14

39:                                               ; preds = %31
  %40 = shl nsw i64 %36, 1
  %41 = and i64 %40, 8589934590
  %42 = or disjoint i64 %41, 1
  %43 = inttoptr i64 %42 to ptr
  br label %lean_dec.exit10

44:                                               ; preds = %31
  %45 = tail call ptr @lean_big_int64_to_int(i64 noundef range(i64 -4611686016279904256, -9223372036854775808) %36) #4
  br label %lean_dec.exit10

lean_int_add.exit:                                ; preds = %lean_int_mul.exit
  %46 = tail call ptr @lean_int_big_add(ptr noundef %3, ptr noundef %.0.i) #4
  br i1 %28, label %47, label %lean_dec.exit11.thread

47:                                               ; preds = %lean_int_add.exit.thread29, %lean_int_add.exit
  %48 = phi ptr [ %30, %lean_int_add.exit.thread29 ], [ %46, %lean_int_add.exit ]
  %49 = load i32, ptr %.0.i, align 4, !tbaa !9
  %50 = icmp sgt i32 %49, 1
  br i1 %50, label %51, label %53, !prof !14

51:                                               ; preds = %47
  %52 = add nsw i32 %49, -1
  store i32 %52, ptr %.0.i, align 4, !tbaa !9
  br label %lean_dec.exit11

53:                                               ; preds = %47
  %.not.i = icmp eq i32 %49, 0
  br i1 %.not.i, label %lean_dec.exit11, label %54

54:                                               ; preds = %53
  tail call void @lean_dec_ref_cold(ptr noundef nonnull %.0.i) #4
  br label %lean_dec.exit11

lean_dec.exit11:                                  ; preds = %54, %53, %51
  br i1 %.not.i17, label %lean_dec.exit11.thread, label %lean_dec.exit10

lean_dec.exit11.thread:                           ; preds = %lean_int_add.exit, %lean_dec.exit11
  %.0.i192833 = phi ptr [ %48, %lean_dec.exit11 ], [ %46, %lean_int_add.exit ]
  %55 = load i32, ptr %3, align 4, !tbaa !9
  %56 = icmp sgt i32 %55, 1
  br i1 %56, label %57, label %59, !prof !14

57:                                               ; preds = %lean_dec.exit11.thread
  %58 = add nsw i32 %55, -1
  store i32 %58, ptr %3, align 4, !tbaa !9
  br label %lean_dec.exit10

59:                                               ; preds = %lean_dec.exit11.thread
  %.not.i12 = icmp eq i32 %55, 0
  br i1 %.not.i12, label %lean_dec.exit10, label %60

60:                                               ; preds = %59
  tail call void @lean_dec_ref_cold(ptr noundef nonnull %3) #4
  br label %lean_dec.exit10

lean_dec.exit10:                                  ; preds = %39, %44, %60, %59, %57, %lean_dec.exit11
  %.0.i192832 = phi ptr [ %.0.i192833, %60 ], [ %.0.i192833, %59 ], [ %.0.i192833, %57 ], [ %48, %lean_dec.exit11 ], [ %45, %44 ], [ %43, %39 ]
  %61 = tail call ptr @l_Std_Time_PlainTime_ofNanoseconds(ptr noundef %.0.i192832)
  %62 = ptrtoint ptr %.0.i192832 to i64
  %63 = and i64 %62, 1
  %.not22 = icmp eq i64 %63, 0
  br i1 %.not22, label %64, label %lean_dec.exit

64:                                               ; preds = %lean_dec.exit10
  %65 = load i32, ptr %.0.i192832, align 4, !tbaa !9
  %66 = icmp sgt i32 %65, 1
  br i1 %66, label %67, label %69, !prof !14

67:                                               ; preds = %64
  %68 = add nsw i32 %65, -1
  store i32 %68, ptr %.0.i192832, align 4, !tbaa !9
  br label %lean_dec.exit

69:                                               ; preds = %64
  %.not.i14 = icmp eq i32 %65, 0
  br i1 %.not.i14, label %lean_dec.exit, label %70

70:                                               ; preds = %69
  tail call void @lean_dec_ref_cold(ptr noundef nonnull %.0.i192832) #4
  br label %lean_dec.exit

lean_dec.exit:                                    ; preds = %70, %69, %67, %lean_dec.exit10
  ret ptr %61
}